target datalayout = "e-m:e-p270:32:32-p271:32:32-p272:64:64-i64:64-i128:128-f80:128-n8:16:32:64-S128"
target triple = "x86_64-pc-linux-gnu"

%"class.std::basic_ios" = type { %"class.std::ios_base", ptr, i8, i8, ptr, ptr, ptr, ptr }
%"class.std::ios_base" = type { ptr, i64, i64, i32, i32, i32, ptr, %"struct.std::ios_base::_Words", [8 x %"struct.std::ios_base::_Words"], i32, ptr, %"class.std::locale" }
%"struct.std::ios_base::_Words" = type { ptr, i64 }
%"class.std::locale" = type { ptr }
%"class.std::basic_ifstream" = type { %"class.std::basic_istream.base", %"class.std::basic_filebuf", %"class.std::basic_ios" }
%"class.std::basic_istream.base" = type { ptr, i64 }
%"class.std::basic_filebuf" = type { %"class.std::basic_streambuf", %union.pthread_mutex_t, %"class.std::__basic_file", i32, %struct.__mbstate_t, %struct.__mbstate_t, %struct.__mbstate_t, ptr, i64, i8, i8, i8, i8, ptr, ptr, i8, ptr, ptr, i64, ptr, ptr }
%"class.std::basic_streambuf" = type { ptr, ptr, ptr, ptr, ptr, ptr, ptr, %"class.std::locale" }
%union.pthread_mutex_t = type { %struct.__pthread_mutex_s }
%struct.__pthread_mutex_s = type { i32, i32, i32, i32, i32, i16, i16, %struct.__pthread_internal_list }
%struct.__pthread_internal_list = type { ptr, ptr }
%"class.std::__basic_file" = type <{ ptr, i8, [7 x i8] }>
%struct.__mbstate_t = type { i32, %union.anon.7 }
%union.anon.7 = type { i32 }
%union.anon.62 = type { i32 }
%struct.timeval = type { i64, i64 }
%"class.std::basic_istream" = type { ptr, i64, %"class.std::basic_ios" }

@.str.51 = private unnamed_addr constant [13 x i8] c"/dev/urandom\00", align 1

; Function Attrs: inlinehint mustprogress nounwind uwtable
define linkonce_odr dso_local noundef i32 @_ZStanSt12_Ios_IostateS_(i32 noundef %0, i32 noundef %1) #8 comdat {
  %3 = alloca i32, align 4
  %4 = alloca i32, align 4
  store i32 %0, ptr %3, align 4, !tbaa !632
  store i32 %1, ptr %4, align 4, !tbaa !632
  %5 = load i32, ptr %3, align 4, !tbaa !632
  %6 = load i32, ptr %4, align 4, !tbaa !632
  %7 = and i32 %5, %6
  ret i32 %7
}

; Function Attrs: inlinehint mustprogress nounwind uwtable
define linkonce_odr dso_local noundef i32 @_ZStorSt12_Ios_IostateS_(i32 noundef %0, i32 noundef %1) #8 comdat {
  %3 = alloca i32, align 4
  %4 = alloca i32, align 4
  store i32 %0, ptr %3, align 4, !tbaa !632
  store i32 %1, ptr %4, align 4, !tbaa !632
  %5 = load i32, ptr %3, align 4, !tbaa !632
  %6 = load i32, ptr %4, align 4, !tbaa !632
  %7 = or i32 %5, %6
  ret i32 %7
}

; Function Attrs: mustprogress uwtable
define available_externally noundef zeroext i1 @_ZNKSt9basic_iosIcSt11char_traitsIcEE4failEv(ptr noundef nonnull align 8 dereferenceable(264) %0) #6 align 2 {
  %2 = alloca ptr, align 8
  store ptr %0, ptr %2, align 8, !tbaa !98
  %3 = load ptr, ptr %2, align 8
  %4 = call noundef i32 @_ZNKSt9basic_iosIcSt11char_traitsIcEE7rdstateEv(ptr noundef nonnull align 8 dereferenceable(264) %3)
  %5 = call noundef i32 @_ZStorSt12_Ios_IostateS_(i32 noundef 1, i32 noundef 4)
  %6 = call noundef i32 @_ZStanSt12_Ios_IostateS_(i32 noundef %4, i32 noundef %5)
  %7 = icmp ne i32 %6, 0
  ret i1 %7
}

; Function Attrs: mustprogress nounwind uwtable
define available_externally noundef i32 @_ZNKSt9basic_iosIcSt11char_traitsIcEE7rdstateEv(ptr noundef nonnull align 8 dereferenceable(264) %0) #4 align 2 {
  %2 = alloca ptr, align 8
  store ptr %0, ptr %2, align 8, !tbaa !98
  %3 = load ptr, ptr %2, align 8
  %4 = getelementptr inbounds nuw %"class.std::ios_base", ptr %3, i32 0, i32 5
  %5 = load i32, ptr %4, align 8, !tbaa !633
  ret i32 %5
}

; Function Attrs: mustprogress uwtable
define available_externally void @_ZNSt9basic_iosIcSt11char_traitsIcEE8setstateESt12_Ios_Iostate(ptr noundef nonnull align 8 dereferenceable(264) %0, i32 noundef %1) #6 align 2 {
  %3 = alloca ptr, align 8
  %4 = alloca i32, align 4
  store ptr %0, ptr %3, align 8, !tbaa !98
  store i32 %1, ptr %4, align 4, !tbaa !632
  %5 = load ptr, ptr %3, align 8
  %6 = call noundef i32 @_ZNKSt9basic_iosIcSt11char_traitsIcEE7rdstateEv(ptr noundef nonnull align 8 dereferenceable(264) %5)
  %7 = load i32, ptr %4, align 4, !tbaa !632
  %8 = call noundef i32 @_ZStorSt12_Ios_IostateS_(i32 noundef %6, i32 noundef %7)
  call void @_ZNSt9basic_iosIcSt11char_traitsIcEE5clearESt12_Ios_Iostate(ptr noundef nonnull align 8 dereferenceable(264) %5, i32 noundef %8)
  ret void
}

; Function Attrs: inlinehint mustprogress nounwind uwtable
define linkonce_odr dso_local noundef i32 @_ZStorSt13_Ios_OpenmodeS_(i32 noundef %0, i32 noundef %1) #8 comdat {
  %3 = alloca i32, align 4
  %4 = alloca i32, align 4
  store i32 %0, ptr %3, align 4, !tbaa !96
  store i32 %1, ptr %4, align 4, !tbaa !96
  %5 = load i32, ptr %3, align 4, !tbaa !96
  %6 = load i32, ptr %4, align 4, !tbaa !96
  %7 = or i32 %5, %6
  ret i32 %7
}

; Function Attrs: mustprogress nounwind uwtable
define available_externally noundef i64 @_ZNKSi6gcountEv(ptr noundef nonnull align 8 dereferenceable(16) %0) #4 align 2 {
  %2 = alloca ptr, align 8
  store ptr %0, ptr %2, align 8, !tbaa !300
  %3 = load ptr, ptr %2, align 8
  %4 = getelementptr inbounds nuw %"class.std::basic_istream", ptr %3, i32 0, i32 1
  %5 = load i64, ptr %4, align 8, !tbaa !302
  ret i64 %5
}

; Function Attrs: mustprogress uwtable
define available_externally noundef zeroext i1 @_ZNKSt9basic_iosIcSt11char_traitsIcEEcvbEv(ptr noundef nonnull align 8 dereferenceable(264) %0) #6 align 2 {
  %2 = alloca ptr, align 8
  store ptr %0, ptr %2, align 8, !tbaa !98
  %3 = load ptr, ptr %2, align 8
  %4 = call noundef zeroext i1 @_ZNKSt9basic_iosIcSt11char_traitsIcEE4failEv(ptr noundef nonnull align 8 dereferenceable(264) %3)
  %5 = xor i1 %4, true
  ret i1 %5
}

; Function Attrs: mustprogress nounwind uwtable
define available_externally noundef zeroext i1 @_ZNKSt9basic_iosIcSt11char_traitsIcEE4goodEv(ptr noundef nonnull align 8 dereferenceable(264) %0) #4 align 2 {
  %2 = alloca ptr, align 8
  store ptr %0, ptr %2, align 8, !tbaa !98
  %3 = load ptr, ptr %2, align 8
  %4 = call noundef i32 @_ZNKSt9basic_iosIcSt11char_traitsIcEE7rdstateEv(ptr noundef nonnull align 8 dereferenceable(264) %3)
  %5 = icmp eq i32 %4, 0
  ret i1 %5
}

; Function Attrs: mustprogress uwtable
define available_externally void @_ZNSt14basic_ifstreamIcSt11char_traitsIcEE4openEPKcSt13_Ios_Openmode(ptr noundef nonnull align 8 dereferenceable(256) %0, ptr noundef %1, i32 noundef %2) #6 align 2 {
  %4 = alloca ptr, align 8
  %5 = alloca ptr, align 8
  %6 = alloca i32, align 4
  store ptr %0, ptr %4, align 8, !tbaa !94
  store ptr %1, ptr %5, align 8, !tbaa !33
  store i32 %2, ptr %6, align 4, !tbaa !96
  %7 = load ptr, ptr %4, align 8
  %8 = getelementptr inbounds nuw %"class.std::basic_ifstream", ptr %7, i32 0, i32 1
  %9 = load ptr, ptr %5, align 8, !tbaa !33
  %10 = load i32, ptr %6, align 4, !tbaa !96
  %11 = call noundef i32 @_ZStorSt13_Ios_OpenmodeS_(i32 noundef %10, i32 noundef 8)
  %12 = call noundef ptr @_ZNSt13basic_filebufIcSt11char_traitsIcEE4openEPKcSt13_Ios_Openmode(ptr noundef nonnull align 8 dereferenceable(240) %8, ptr noundef %9, i32 noundef %11)
  %13 = icmp ne ptr %12, null
  br i1 %13, label %19, label %14

14:                                               ; preds = %3
  %15 = load ptr, ptr %7, align 8, !tbaa !22
  %16 = getelementptr i8, ptr %15, i64 -24
  %17 = load i64, ptr %16, align 8
  %18 = getelementptr inbounds i8, ptr %7, i64 %17
  call void @_ZNSt9basic_iosIcSt11char_traitsIcEE8setstateESt12_Ios_Iostate(ptr noundef nonnull align 8 dereferenceable(264) %18, i32 noundef 4)
  br label %24

19:                                               ; preds = %3
  %20 = load ptr, ptr %7, align 8, !tbaa !22
  %21 = getelementptr i8, ptr %20, i64 -24
  %22 = load i64, ptr %21, align 8
  %23 = getelementptr inbounds i8, ptr %7, i64 %22
  call void @_ZNSt9basic_iosIcSt11char_traitsIcEE5clearESt12_Ios_Iostate(ptr noundef nonnull align 8 dereferenceable(264) %23, i32 noundef 0)
  br label %24

24:                                               ; preds = %19, %14
  ret void
}

; Function Attrs: mustprogress uwtable
define available_externally noundef ptr @_ZNSt15basic_streambufIcSt11char_traitsIcEE9pubsetbufEPcl(ptr noundef nonnull align 8 dereferenceable(64) %0, ptr noundef %1, i64 noundef %2) #6 align 2 {
  %4 = alloca ptr, align 8
  %5 = alloca ptr, align 8
  %6 = alloca i64, align 8
  store ptr %0, ptr %4, align 8, !tbaa !298
  store ptr %1, ptr %5, align 8, !tbaa !33
  store i64 %2, ptr %6, align 8, !tbaa !45
  %7 = load ptr, ptr %4, align 8
  %8 = load ptr, ptr %5, align 8, !tbaa !33
  %9 = load i64, ptr %6, align 8, !tbaa !45
  %10 = load ptr, ptr %7, align 8, !tbaa !22
  %11 = getelementptr inbounds ptr, ptr %10, i64 3
  %12 = load ptr, ptr %11, align 8
  %13 = call noundef ptr %12(ptr noundef nonnull align 8 dereferenceable(64) %7, ptr noundef %8, i64 noundef %9)
  ret ptr %13
}

; Function Attrs: mustprogress nounwind uwtable
define available_externally noundef ptr @_ZNKSt14basic_ifstreamIcSt11char_traitsIcEE5rdbufEv(ptr noundef nonnull align 8 dereferenceable(256) %0) #4 align 2 {
  %2 = alloca ptr, align 8
  store ptr %0, ptr %2, align 8, !tbaa !94
  %3 = load ptr, ptr %2, align 8
  %4 = getelementptr inbounds nuw %"class.std::basic_ifstream", ptr %3, i32 0, i32 1
  ret ptr %4
}

; Function Attrs: mustprogress uwtable
define dso_local noundef i32 @_ZN13cmSystemTools10RandomSeedEv() #6 align 2 personality ptr @__gxx_personality_v0 {
  %1 = alloca i32, align 4
  %2 = alloca %union.anon.62, align 4
  %3 = alloca %"class.std::basic_ifstream", align 8
  %4 = alloca ptr, align 8
  %5 = alloca i32, align 4
  %6 = alloca i32, align 4
  %7 = alloca %struct.timeval, align 8
  %8 = alloca i32, align 4
  %9 = alloca i32, align 4
  %10 = alloca i32, align 4
  call void @llvm.lifetime.start.p0(i64 4, ptr %2) #3
  call void @llvm.lifetime.start.p0(i64 520, ptr %3) #3
  call void @_ZNSt14basic_ifstreamIcSt11char_traitsIcEEC1Ev(ptr noundef nonnull align 8 dereferenceable(256) %3)
  %11 = invoke noundef ptr @_ZNKSt14basic_ifstreamIcSt11char_traitsIcEE5rdbufEv(ptr noundef nonnull align 8 dereferenceable(256) %3)
          to label %12 unwind label %38

12:                                               ; preds = %0
  %13 = invoke noundef ptr @_ZNSt15basic_streambufIcSt11char_traitsIcEE9pubsetbufEPcl(ptr noundef nonnull align 8 dereferenceable(64) %11, ptr noundef null, i64 noundef 0)
          to label %14 unwind label %38

14:                                               ; preds = %12
  invoke void @_ZNSt14basic_ifstreamIcSt11char_traitsIcEE4openEPKcSt13_Ios_Openmode(ptr noundef nonnull align 8 dereferenceable(256) %3, ptr noundef @.str.51, i32 noundef 8)
          to label %15 unwind label %38

15:                                               ; preds = %14
  %16 = load ptr, ptr %3, align 8, !tbaa !22
  %17 = getelementptr i8, ptr %16, i64 -24
  %18 = load i64, ptr %17, align 8
  %19 = getelementptr inbounds i8, ptr %3, i64 %18
  %20 = invoke noundef zeroext i1 @_ZNKSt9basic_iosIcSt11char_traitsIcEE4goodEv(ptr noundef nonnull align 8 dereferenceable(264) %19)
          to label %21 unwind label %38

21:                                               ; preds = %15
  br i1 %20, label %22, label %42

22:                                               ; preds = %21
  %23 = getelementptr inbounds [4 x i8], ptr %2, i64 0, i64 0
  %24 = invoke noundef nonnull align 8 dereferenceable(16) ptr @_ZNSi4readEPcl(ptr noundef nonnull align 8 dereferenceable(16) %3, ptr noundef %23, i64 noundef 4)
          to label %25 unwind label %38

25:                                               ; preds = %22
  %26 = load ptr, ptr %24, align 8, !tbaa !22
  %27 = getelementptr i8, ptr %26, i64 -24
  %28 = load i64, ptr %27, align 8
  %29 = getelementptr inbounds i8, ptr %24, i64 %28
  %30 = invoke noundef zeroext i1 @_ZNKSt9basic_iosIcSt11char_traitsIcEEcvbEv(ptr noundef nonnull align 8 dereferenceable(264) %29)
          to label %31 unwind label %38

31:                                               ; preds = %25
  br i1 %30, label %32, label %42

32:                                               ; preds = %31
  %33 = invoke noundef i64 @_ZNKSi6gcountEv(ptr noundef nonnull align 8 dereferenceable(16) %3)
          to label %34 unwind label %38

34:                                               ; preds = %32
  %35 = icmp eq i64 %33, 4
  br i1 %35, label %36, label %42

36:                                               ; preds = %34
  %37 = load i32, ptr %2, align 4, !tbaa !28
  store i32 %37, ptr %1, align 4
  store i32 1, ptr %6, align 4
  br label %57

38:                                               ; preds = %32, %25, %22, %15, %14, %12, %0
  %39 = landingpad { ptr, i32 }
          cleanup
  %40 = extractvalue { ptr, i32 } %39, 0
  store ptr %40, ptr %4, align 8
  %41 = extractvalue { ptr, i32 } %39, 1
  store i32 %41, ptr %5, align 4
  call void @_ZNSt14basic_ifstreamIcSt11char_traitsIcEED1Ev(ptr noundef nonnull align 8 dereferenceable(256) %3) #3
  call void @llvm.lifetime.end.p0(i64 520, ptr %3) #3
  call void @llvm.lifetime.end.p0(i64 4, ptr %2) #3
  br label %59

42:                                               ; preds = %34, %31, %21
  call void @llvm.lifetime.start.p0(i64 16, ptr %7) #3
  %43 = call i32 @gettimeofday(ptr noundef %7, ptr noundef null) #3
  call void @llvm.lifetime.start.p0(i64 4, ptr %8) #3
  %44 = call i32 @getpid() #3
  store i32 %44, ptr %8, align 4, !tbaa !46
  call void @llvm.lifetime.start.p0(i64 4, ptr %9) #3
  %45 = getelementptr inbounds nuw %struct.timeval, ptr %7, i32 0, i32 0
  %46 = load i64, ptr %45, align 8, !tbaa !295
  %47 = trunc i64 %46 to i32
  store i32 %47, ptr %9, align 4, !tbaa !46
  call void @llvm.lifetime.start.p0(i64 4, ptr %10) #3
  %48 = getelementptr inbounds nuw %struct.timeval, ptr %7, i32 0, i32 1
  %49 = load i64, ptr %48, align 8, !tbaa !297
  %50 = trunc i64 %49 to i32
  store i32 %50, ptr %10, align 4, !tbaa !46
  %51 = load i32, ptr %9, align 4, !tbaa !46
  %52 = load i32, ptr %10, align 4, !tbaa !46
  %53 = shl i32 %52, 21
  %54 = xor i32 %51, %53
  %55 = load i32, ptr %8, align 4, !tbaa !46
  %56 = xor i32 %54, %55
  store i32 %56, ptr %1, align 4
  store i32 1, ptr %6, align 4
  call void @llvm.lifetime.end.p0(i64 4, ptr %10) #3
  call void @llvm.lifetime.end.p0(i64 4, ptr %9) #3
  call void @llvm.lifetime.end.p0(i64 4, ptr %8) #3
  call void @llvm.lifetime.end.p0(i64 16, ptr %7) #3
  br label %57

57:                                               ; preds = %42, %36
  call void @_ZNSt14basic_ifstreamIcSt11char_traitsIcEED1Ev(ptr noundef nonnull align 8 dereferenceable(256) %3) #3
  call void @llvm.lifetime.end.p0(i64 520, ptr %3) #3
  call void @llvm.lifetime.end.p0(i64 4, ptr %2) #3
  %58 = load i32, ptr %1, align 4
  ret i32 %58

59:                                               ; preds = %38
  %60 = load ptr, ptr %4, align 8
  %61 = load i32, ptr %5, align 4
  %62 = insertvalue { ptr, i32 } poison, ptr %60, 0
  %63 = insertvalue { ptr, i32 } %62, i32 %61, 1
  resume { ptr, i32 } %63
}