; Function Attrs: mustprogress uwtable
define dso_local noundef i32 @_ZN13cmSystemTools10RandomSeedEv() local_unnamed_addr #3 align 2 personality ptr @__gxx_personality_v0 {
  %1 = alloca %union.anon.62, align 4
  %2 = alloca %"class.std::basic_ifstream", align 8
  %3 = alloca %struct.timeval, align 8
  call void @llvm.lifetime.start.p0(i64 4, ptr nonnull %1) #37
  call void @llvm.lifetime.start.p0(i64 520, ptr nonnull %2) #37
  call void @_ZNSt14basic_ifstreamIcSt11char_traitsIcEEC1Ev(ptr noundef nonnull align 8 dereferenceable(256) %2)
  %4 = getelementptr inbounds nuw i8, ptr %2, i64 16
  %5 = load ptr, ptr %4, align 8, !tbaa !68
  %6 = getelementptr inbounds nuw i8, ptr %5, i64 24
  %7 = load ptr, ptr %6, align 8
  %8 = invoke noundef ptr %7(ptr noundef nonnull align 8 dereferenceable(64) %4, ptr noundef null, i64 noundef 0)
          to label %_ZNSt15basic_streambufIcSt11char_traitsIcEE9pubsetbufEPcl.exit unwind label %41

_ZNSt15basic_streambufIcSt11char_traitsIcEE9pubsetbufEPcl.exit: ; preds = %0
  %9 = invoke noundef ptr @_ZNSt13basic_filebufIcSt11char_traitsIcEE4openEPKcSt13_Ios_Openmode(ptr noundef nonnull align 8 dereferenceable(240) %4, ptr noundef nonnull @.str.51, i32 noundef 8)
          to label %.noexc unwind label %41

.noexc:                                           ; preds = %_ZNSt15basic_streambufIcSt11char_traitsIcEE9pubsetbufEPcl.exit
  %.not.i = icmp eq ptr %9, null
  %10 = load ptr, ptr %2, align 8, !tbaa !68
  %11 = getelementptr i8, ptr %10, i64 -24
  %12 = load i64, ptr %11, align 8
  %13 = getelementptr inbounds i8, ptr %2, i64 %12
  br i1 %.not.i, label %14, label %18

14:                                               ; preds = %.noexc
  %15 = getelementptr inbounds nuw i8, ptr %13, i64 32
  %16 = load i32, ptr %15, align 8, !tbaa !114
  %17 = or i32 %16, 4
  br label %18

18:                                               ; preds = %14, %.noexc
  %.sink.i = phi i32 [ %17, %14 ], [ 0, %.noexc ]
  invoke void @_ZNSt9basic_iosIcSt11char_traitsIcEE5clearESt12_Ios_Iostate(ptr noundef nonnull align 8 dereferenceable(264) %13, i32 noundef %.sink.i)
          to label %_ZNSt14basic_ifstreamIcSt11char_traitsIcEE4openEPKcSt13_Ios_Openmode.exit unwind label %41

_ZNSt14basic_ifstreamIcSt11char_traitsIcEE4openEPKcSt13_Ios_Openmode.exit: ; preds = %18
  %19 = load ptr, ptr %2, align 8, !tbaa !68
  %20 = getelementptr i8, ptr %19, i64 -24
  %21 = load i64, ptr %20, align 8
  %22 = getelementptr inbounds i8, ptr %2, i64 %21
  %23 = getelementptr inbounds nuw i8, ptr %22, i64 32
  %24 = load i32, ptr %23, align 8, !tbaa !114
  %25 = icmp eq i32 %24, 0
  br i1 %25, label %26, label %43

26:                                               ; preds = %_ZNSt14basic_ifstreamIcSt11char_traitsIcEE4openEPKcSt13_Ios_Openmode.exit
  %27 = invoke noundef nonnull align 8 dereferenceable(16) ptr @_ZNSi4readEPcl(ptr noundef nonnull align 8 dereferenceable(16) %2, ptr noundef nonnull %1, i64 noundef 4)
          to label %28 unwind label %41

28:                                               ; preds = %26
  %29 = load ptr, ptr %27, align 8, !tbaa !68
  %30 = getelementptr i8, ptr %29, i64 -24
  %31 = load i64, ptr %30, align 8
  %32 = getelementptr inbounds i8, ptr %27, i64 %31
  %33 = getelementptr inbounds nuw i8, ptr %32, i64 32
  %34 = load i32, ptr %33, align 8, !tbaa !114
  %35 = and i32 %34, 5
  %.not.i6 = icmp eq i32 %35, 0
  %36 = getelementptr inbounds nuw i8, ptr %2, i64 8
  %37 = load i64, ptr %36, align 8
  %38 = icmp eq i64 %37, 4
  %or.cond = select i1 %.not.i6, i1 %38, i1 false
  br i1 %or.cond, label %39, label %43

39:                                               ; preds = %28
  %40 = load i32, ptr %1, align 4, !tbaa !26
  br label %54

41:                                               ; preds = %18, %_ZNSt15basic_streambufIcSt11char_traitsIcEE9pubsetbufEPcl.exit, %0, %26
  %42 = landingpad { ptr, i32 }
          cleanup
  call void @_ZNSt14basic_ifstreamIcSt11char_traitsIcEED1Ev(ptr noundef nonnull align 8 dereferenceable(256) %2) #37
  call void @llvm.lifetime.end.p0(i64 520, ptr nonnull %2) #37
  call void @llvm.lifetime.end.p0(i64 4, ptr nonnull %1) #37
  resume { ptr, i32 } %42

43:                                               ; preds = %28, %_ZNSt14basic_ifstreamIcSt11char_traitsIcEE4openEPKcSt13_Ios_Openmode.exit
  call void @llvm.lifetime.start.p0(i64 16, ptr nonnull %3) #37
  %44 = call i32 @gettimeofday(ptr noundef nonnull %3, ptr noundef null) #37
  %45 = call i32 @getpid() #37
  %46 = load i64, ptr %3, align 8, !tbaa !514
  %47 = trunc i64 %46 to i32
  %48 = getelementptr inbounds nuw i8, ptr %3, i64 8
  %49 = load i64, ptr %48, align 8, !tbaa !516
  %50 = trunc i64 %49 to i32
  %51 = shl i32 %50, 21
  %52 = xor i32 %45, %47
  %53 = xor i32 %52, %51
  call void @llvm.lifetime.end.p0(i64 16, ptr nonnull %3) #37
  br label %54

54:                                               ; preds = %43, %39
  %.0 = phi i32 [ %40, %39 ], [ %53, %43 ]
  call void @_ZNSt14basic_ifstreamIcSt11char_traitsIcEED1Ev(ptr noundef nonnull align 8 dereferenceable(256) %2) #37
  call void @llvm.lifetime.end.p0(i64 520, ptr nonnull %2) #37
  call void @llvm.lifetime.end.p0(i64 4, ptr nonnull %1) #37
  ret i32 %.0
}